target datalayout = "e-m:e-p270:32:32-p271:32:32-p272:64:64-i64:64-i128:128-f80:128-n8:16:32:64-S128"
target triple = "x86_64-pc-linux-gnu"

%struct.BackendGlobalData = type <{ ptr, ptr, i8, i8, i8, i8, i8, i8, i8, i8, i8, [3 x i8], i32, ptr, ptr, ptr, ptr, ptr, ptr, ptr, ptr, ptr, ptr, ptr, ptr, ptr, i32, %struct.jvmtiCapabilities, i8, [3 x i8], %struct.jvmtiEventCallbacks, ptr, ptr, ptr, ptr, ptr, ptr, ptr, i32, [4 x i8], ptr, i64, i32, [4 x i8], ptr, i32, i32, i8, i8, [6 x i8] }>
%struct.jvmtiCapabilities = type { i64, i64 }
%struct.jvmtiEventCallbacks = type { ptr, ptr, ptr, ptr, ptr, ptr, ptr, ptr, ptr, ptr, ptr, ptr, ptr, ptr, ptr, ptr, ptr, ptr, ptr, ptr, ptr, ptr, ptr, ptr, ptr, ptr, ptr, ptr, ptr, ptr, ptr, ptr, ptr, ptr, ptr, ptr, ptr, ptr, ptr }

@gdata = external global ptr, align 8
@.str.1 = private unnamed_addr constant [52 x i8] c"src/jdk.jdwp.agent/share/native/libjdwp/debugInit.c\00", align 1
@.str.10 = private unnamed_addr constant [5 x i8] c"MISC\00", align 1
@.str.29 = private unnamed_addr constant [3 x i8] c"CB\00", align 1
@stderr = external global ptr, align 8
@.str.31 = private unnamed_addr constant [17 x i8] c"JDWP exit error \00", align 1
@.str.32 = private unnamed_addr constant [2 x i8] c"\0A\00", align 1
@.str.33 = private unnamed_addr constant [19 x i8] c"%s(%d): %s [%s:%d]\00", align 1
@.str.36 = private unnamed_addr constant [15 x i8] c"cbEarlyVMDeath\00", align 1
@.str.37 = private unnamed_addr constant [23 x i8] c"VM died more than once\00", align 1
@.str.38 = private unnamed_addr constant [19 x i8] c"END cbEarlyVMDeath\00", align 1

; Function Attrs: nounwind uwtable
define internal void @cbEarlyVMDeath(ptr noundef %0, ptr noundef %1) #0 {
  %3 = alloca ptr, align 8
  %4 = alloca ptr, align 8
  store ptr %0, ptr %3, align 8
  store ptr %1, ptr %4, align 8
  %5 = load ptr, ptr @gdata, align 8
  %6 = getelementptr inbounds %struct.BackendGlobalData, ptr %5, i32 0, i32 38
  %7 = load i32, ptr %6, align 8
  %8 = and i32 %7, 64
  %9 = icmp ne i32 %8, 0
  br i1 %9, label %10, label %11

10:                                               ; preds = %2
  call void @log_message_begin(ptr noundef @.str.29, ptr noundef @.str.1, i32 noundef 418)
  call void (ptr, ...) @log_message_end(ptr noundef @.str.36)
  br label %12

11:                                               ; preds = %2
  br label %12

12:                                               ; preds = %11, %10
  %13 = load ptr, ptr @gdata, align 8
  %14 = getelementptr inbounds %struct.BackendGlobalData, ptr %13, i32 0, i32 2
  %15 = load volatile i8, ptr %14, align 8
  %16 = icmp ne i8 %15, 0
  br i1 %16, label %17, label %20

17:                                               ; preds = %12
  %18 = load ptr, ptr @stderr, align 8
  %19 = call ptr @jvmtiErrorText(i32 noundef 181)
  call void (ptr, ptr, ptr, ptr, ...) @print_message(ptr noundef %18, ptr noundef @.str.31, ptr noundef @.str.32, ptr noundef @.str.33, ptr noundef %19, i32 noundef 181, ptr noundef @.str.37, ptr noundef @.str.1, i32 noundef 420)
  call void @debugInit_exit(i32 noundef 181, ptr noundef @.str.37)
  br label %20

20:                                               ; preds = %17, %12
  %21 = load ptr, ptr %3, align 8
  call void @disposeEnvironment(ptr noundef %21)
  %22 = load ptr, ptr @gdata, align 8
  %23 = getelementptr inbounds %struct.BackendGlobalData, ptr %22, i32 0, i32 0
  store ptr null, ptr %23, align 8
  %24 = load ptr, ptr @gdata, align 8
  %25 = getelementptr inbounds %struct.BackendGlobalData, ptr %24, i32 0, i32 1
  store ptr null, ptr %25, align 8
  %26 = load ptr, ptr @gdata, align 8
  %27 = getelementptr inbounds %struct.BackendGlobalData, ptr %26, i32 0, i32 2
  store volatile i8 1, ptr %27, align 8
  %28 = load ptr, ptr @gdata, align 8
  %29 = getelementptr inbounds %struct.BackendGlobalData, ptr %28, i32 0, i32 38
  %30 = load i32, ptr %29, align 8
  %31 = and i32 %30, 8
  %32 = icmp ne i32 %31, 0
  br i1 %32, label %33, label %34

33:                                               ; preds = %20
  call void @log_message_begin(ptr noundef @.str.10, ptr noundef @.str.1, i32 noundef 426)
  call void (ptr, ...) @log_message_end(ptr noundef @.str.38)
  br label %35

34:                                               ; preds = %20
  br label %35

35:                                               ; preds = %34, %33
  ret void
}