; Function Attrs: nounwind uwtable
define internal void @cbEarlyVMDeath(ptr noundef %0, ptr nocapture readnone %1) #0 {
  %3 = load ptr, ptr @gdata, align 8
  %4 = getelementptr inbounds i8, ptr %3, i64 528
  %5 = load i32, ptr %4, align 8
  %6 = and i32 %5, 64
  %.not = icmp eq i32 %6, 0
  br i1 %.not, label %8, label %7

7:                                                ; preds = %2
  tail call void @log_message_begin(ptr noundef nonnull @.str.29, ptr noundef nonnull @.str.1, i32 noundef 418) #16
  tail call void (ptr, ...) @log_message_end(ptr noundef nonnull @.str.36) #16
  %.pre = load ptr, ptr @gdata, align 8
  br label %8

8:                                                ; preds = %2, %7
  %9 = phi ptr [ %3, %2 ], [ %.pre, %7 ]
  %10 = getelementptr inbounds i8, ptr %9, i64 16
  %11 = load volatile i8, ptr %10, align 8
  %.not1 = icmp eq i8 %11, 0
  br i1 %.not1, label %15, label %12

12:                                               ; preds = %8
  %13 = load ptr, ptr @stderr, align 8
  %14 = tail call ptr @jvmtiErrorText(i32 noundef 181) #16
  tail call void (ptr, ptr, ptr, ptr, ...) @print_message(ptr noundef %13, ptr noundef nonnull @.str.31, ptr noundef nonnull @.str.32, ptr noundef nonnull @.str.33, ptr noundef %14, i32 noundef 181, ptr noundef nonnull @.str.37, ptr noundef nonnull @.str.1, i32 noundef 420) #16
  tail call void @debugInit_exit(i32 noundef 181, ptr noundef nonnull @.str.37)
  unreachable

15:                                               ; preds = %8
  tail call fastcc void @disposeEnvironment(ptr noundef %0)
  %16 = load ptr, ptr @gdata, align 8
  store ptr null, ptr %16, align 8
  %17 = load ptr, ptr @gdata, align 8
  %18 = getelementptr inbounds i8, ptr %17, i64 8
  store ptr null, ptr %18, align 8
  %19 = getelementptr inbounds i8, ptr %17, i64 16
  store volatile i8 1, ptr %19, align 8
  %20 = getelementptr inbounds i8, ptr %17, i64 528
  %21 = load i32, ptr %20, align 8
  %22 = and i32 %21, 8
  %.not2 = icmp eq i32 %22, 0
  br i1 %.not2, label %24, label %23

23:                                               ; preds = %15
  tail call void @log_message_begin(ptr noundef nonnull @.str.10, ptr noundef nonnull @.str.1, i32 noundef 426) #16
  tail call void (ptr, ...) @log_message_end(ptr noundef nonnull @.str.38) #16
  br label %24

24:                                               ; preds = %15, %23
  ret void
}